; Function Attrs: nofree nounwind sspstrong uwtable
define dso_local i32 @main(i32 %0, i8** nocapture readnone %1) local_unnamed_addr #0 {
  %3 = alloca i32, align 4
  %4 = alloca i32, align 4
  %5 = alloca [8 x i32], align 16
  %6 = alloca [8 x i32], align 16
  %7 = bitcast [8 x i32]* %6 to i8*
  %8 = alloca [8 x [8 x i32]], align 16
  %9 = bitcast [8 x [8 x i32]]* %8 to i8*
  %10 = bitcast i32* %3 to i8*
  call void @llvm.lifetime.start.p0i8(i64 4, i8* nonnull %10) #5
  %11 = bitcast i32* %4 to i8*
  call void @llvm.lifetime.start.p0i8(i64 4, i8* nonnull %11) #5
  %12 = bitcast [8 x i32]* %5 to i8*
  call void @llvm.lifetime.start.p0i8(i64 32, i8* nonnull %12) #5
  call void @llvm.lifetime.start.p0i8(i64 32, i8* nonnull %7) #5
  %13 = call i32 (i8*, ...) @__isoc99_scanf(i8* getelementptr inbounds ([6 x i8], [6 x i8]* @.str, i64 0, i64 0), i32* nonnull %3, i32* nonnull %4)
  call void @llvm.lifetime.start.p0i8(i64 256, i8* nonnull %9) #5
  %14 = load i32, i32* %3, align 4, !tbaa !5
  %15 = icmp sgt i32 %14, 0
  %16 = load i32, i32* %4, align 4
  br i1 %15, label %17, label %160

17:                                               ; preds = %2
  %18 = icmp sgt i32 %16, 0
  br i1 %18, label %19, label %28

19:                                               ; preds = %17, %142
  %20 = phi i32 [ %143, %142 ], [ %14, %17 ]
  %21 = phi i32 [ %144, %142 ], [ %16, %17 ]
  %22 = phi i64 [ %145, %142 ], [ 0, %17 ]
  %23 = icmp sgt i32 %21, 0
  br i1 %23, label %132, label %142

24:                                               ; preds = %142
  %25 = icmp sgt i32 %143, 0
  br i1 %25, label %26, label %160

26:                                               ; preds = %24
  %27 = icmp sgt i32 %144, 0
  br i1 %27, label %37, label %28

28:                                               ; preds = %17, %26
  %29 = phi i32 [ %144, %26 ], [ %16, %17 ]
  %30 = phi i32 [ %143, %26 ], [ %14, %17 ]
  %31 = zext i32 %30 to i64
  %32 = add nsw i64 %31, -1
  %33 = and i64 %31, 3
  %34 = icmp ult i64 %32, 3
  br i1 %34, label %148, label %35

35:                                               ; preds = %28
  %36 = and i64 %31, 4294967292
  br label %229

37:                                               ; preds = %26
  %38 = zext i32 %143 to i64
  %39 = zext i32 %144 to i64
  %40 = add nsw i64 %39, -1
  %41 = add nsw i64 %39, -9
  %42 = lshr i64 %41, 3
  %43 = add nuw nsw i64 %42, 1
  %44 = icmp eq i32 %144, 1
  %45 = icmp ult i64 %40, 8
  %46 = and i64 %40, -8
  %47 = or i64 %46, 1
  %48 = and i64 %43, 1
  %49 = icmp ult i64 %41, 8
  %50 = and i64 %43, 4611686018427387902
  %51 = icmp eq i64 %48, 0
  %52 = icmp eq i64 %40, %46
  br label %53

53:                                               ; preds = %37, %128
  %54 = phi i64 [ 0, %37 ], [ %130, %128 ]
  %55 = getelementptr inbounds [8 x [8 x i32]], [8 x [8 x i32]]* %8, i64 0, i64 %54, i64 0
  %56 = load i32, i32* %55, align 16, !tbaa !5
  %57 = getelementptr inbounds [8 x i32], [8 x i32]* %5, i64 0, i64 %54
  br i1 %44, label %128, label %58, !llvm.loop !9

58:                                               ; preds = %53
  br i1 %45, label %116, label %59

59:                                               ; preds = %58
  %60 = insertelement <4 x i32> poison, i32 %56, i32 0
  %61 = shufflevector <4 x i32> %60, <4 x i32> poison, <4 x i32> zeroinitializer
  br i1 %49, label %92, label %62

62:                                               ; preds = %59, %62
  %63 = phi i64 [ %89, %62 ], [ 0, %59 ]
  %64 = phi <4 x i32> [ %87, %62 ], [ %61, %59 ]
  %65 = phi <4 x i32> [ %88, %62 ], [ %61, %59 ]
  %66 = phi i64 [ %90, %62 ], [ %50, %59 ]
  %67 = or i64 %63, 1
  %68 = getelementptr inbounds [8 x [8 x i32]], [8 x [8 x i32]]* %8, i64 0, i64 %54, i64 %67
  %69 = bitcast i32* %68 to <4 x i32>*
  %70 = load <4 x i32>, <4 x i32>* %69, align 4, !tbaa !5
  %71 = getelementptr inbounds i32, i32* %68, i64 4
  %72 = bitcast i32* %71 to <4 x i32>*
  %73 = load <4 x i32>, <4 x i32>* %72, align 4, !tbaa !5
  %74 = icmp slt <4 x i32> %64, %70
  %75 = icmp slt <4 x i32> %65, %73
  %76 = select <4 x i1> %74, <4 x i32> %70, <4 x i32> %64
  %77 = select <4 x i1> %75, <4 x i32> %73, <4 x i32> %65
  %78 = or i64 %63, 9
  %79 = getelementptr inbounds [8 x [8 x i32]], [8 x [8 x i32]]* %8, i64 0, i64 %54, i64 %78
  %80 = bitcast i32* %79 to <4 x i32>*
  %81 = load <4 x i32>, <4 x i32>* %80, align 4, !tbaa !5
  %82 = getelementptr inbounds i32, i32* %79, i64 4
  %83 = bitcast i32* %82 to <4 x i32>*
  %84 = load <4 x i32>, <4 x i32>* %83, align 4, !tbaa !5
  %85 = icmp slt <4 x i32> %76, %81
  %86 = icmp slt <4 x i32> %77, %84
  %87 = select <4 x i1> %85, <4 x i32> %81, <4 x i32> %76
  %88 = select <4 x i1> %86, <4 x i32> %84, <4 x i32> %77
  %89 = add nuw i64 %63, 16
  %90 = add i64 %66, -2
  %91 = icmp eq i64 %90, 0
  br i1 %91, label %92, label %62, !llvm.loop !11

92:                                               ; preds = %62, %59
  %93 = phi <4 x i32> [ undef, %59 ], [ %87, %62 ]
  %94 = phi <4 x i32> [ undef, %59 ], [ %88, %62 ]
  %95 = phi i64 [ 0, %59 ], [ %89, %62 ]
  %96 = phi <4 x i32> [ %61, %59 ], [ %87, %62 ]
  %97 = phi <4 x i32> [ %61, %59 ], [ %88, %62 ]
  br i1 %51, label %110, label %98

98:                                               ; preds = %92
  %99 = or i64 %95, 1
  %100 = getelementptr inbounds [8 x [8 x i32]], [8 x [8 x i32]]* %8, i64 0, i64 %54, i64 %99
  %101 = bitcast i32* %100 to <4 x i32>*
  %102 = load <4 x i32>, <4 x i32>* %101, align 4, !tbaa !5
  %103 = getelementptr inbounds i32, i32* %100, i64 4
  %104 = bitcast i32* %103 to <4 x i32>*
  %105 = load <4 x i32>, <4 x i32>* %104, align 4, !tbaa !5
  %106 = icmp slt <4 x i32> %97, %105
  %107 = select <4 x i1> %106, <4 x i32> %105, <4 x i32> %97
  %108 = icmp slt <4 x i32> %96, %102
  %109 = select <4 x i1> %108, <4 x i32> %102, <4 x i32> %96
  br label %110

110:                                              ; preds = %92, %98
  %111 = phi <4 x i32> [ %93, %92 ], [ %109, %98 ]
  %112 = phi <4 x i32> [ %94, %92 ], [ %107, %98 ]
  %113 = icmp sgt <4 x i32> %111, %112
  %114 = select <4 x i1> %113, <4 x i32> %111, <4 x i32> %112
  %115 = call i32 @llvm.vector.reduce.smax.v4i32(<4 x i32> %114)
  br i1 %52, label %128, label %116

116:                                              ; preds = %58, %110
  %117 = phi i64 [ 1, %58 ], [ %47, %110 ]
  %118 = phi i32 [ %56, %58 ], [ %115, %110 ]
  br label %119

119:                                              ; preds = %116, %119
  %120 = phi i64 [ %126, %119 ], [ %117, %116 ]
  %121 = phi i32 [ %125, %119 ], [ %118, %116 ]
  %122 = getelementptr inbounds [8 x [8 x i32]], [8 x [8 x i32]]* %8, i64 0, i64 %54, i64 %120
  %123 = load i32, i32* %122, align 4, !tbaa !5
  %124 = icmp slt i32 %121, %123
  %125 = select i1 %124, i32 %123, i32 %121
  %126 = add nuw nsw i64 %120, 1
  %127 = icmp eq i64 %126, %39
  br i1 %127, label %128, label %119, !llvm.loop !13

128:                                              ; preds = %119, %110, %53
  %129 = phi i32 [ %56, %53 ], [ %115, %110 ], [ %125, %119 ]
  store i32 %129, i32* %57, align 4, !tbaa !5
  %130 = add nuw nsw i64 %54, 1
  %131 = icmp eq i64 %130, %38
  br i1 %131, label %160, label %53, !llvm.loop !15

132:                                              ; preds = %19, %132
  %133 = phi i64 [ %136, %132 ], [ 0, %19 ]
  %134 = getelementptr inbounds [8 x [8 x i32]], [8 x [8 x i32]]* %8, i64 0, i64 %22, i64 %133
  %135 = call i32 (i8*, ...) @__isoc99_scanf(i8* getelementptr inbounds ([3 x i8], [3 x i8]* @.str.1, i64 0, i64 0), i32* nonnull %134)
  %136 = add nuw nsw i64 %133, 1
  %137 = load i32, i32* %4, align 4, !tbaa !5
  %138 = sext i32 %137 to i64
  %139 = icmp slt i64 %136, %138
  br i1 %139, label %132, label %140, !llvm.loop !16

140:                                              ; preds = %132
  %141 = load i32, i32* %3, align 4, !tbaa !5
  br label %142

142:                                              ; preds = %140, %19
  %143 = phi i32 [ %141, %140 ], [ %20, %19 ]
  %144 = phi i32 [ %137, %140 ], [ %21, %19 ]
  %145 = add nuw nsw i64 %22, 1
  %146 = sext i32 %143 to i64
  %147 = icmp slt i64 %145, %146
  br i1 %147, label %19, label %24, !llvm.loop !17

148:                                              ; preds = %229, %28
  %149 = phi i64 [ 0, %28 ], [ %247, %229 ]
  %150 = icmp eq i64 %33, 0
  br i1 %150, label %160, label %151

151:                                              ; preds = %148, %151
  %152 = phi i64 [ %157, %151 ], [ %149, %148 ]
  %153 = phi i64 [ %158, %151 ], [ %33, %148 ]
  %154 = getelementptr inbounds [8 x [8 x i32]], [8 x [8 x i32]]* %8, i64 0, i64 %152, i64 0
  %155 = load i32, i32* %154, align 16, !tbaa !5
  %156 = getelementptr inbounds [8 x i32], [8 x i32]* %5, i64 0, i64 %152
  store i32 %155, i32* %156, align 4, !tbaa !5
  %157 = add nuw nsw i64 %152, 1
  %158 = add i64 %153, -1
  %159 = icmp eq i64 %158, 0
  br i1 %159, label %160, label %151, !llvm.loop !19

160:                                              ; preds = %148, %151, %128, %2, %24
  %161 = phi i1 [ false, %24 ], [ false, %2 ], [ true, %128 ], [ true, %151 ], [ true, %148 ]
  %162 = phi i32 [ %143, %24 ], [ %14, %2 ], [ %143, %128 ], [ %30, %151 ], [ %30, %148 ]
  %163 = phi i32 [ %144, %24 ], [ %16, %2 ], [ %144, %128 ], [ %29, %151 ], [ %29, %148 ]
  %164 = icmp sgt i32 %163, 0
  br i1 %164, label %165, label %274

165:                                              ; preds = %160
  %166 = zext i32 %163 to i64
  br i1 %161, label %169, label %167

167:                                              ; preds = %165
  %168 = shl nuw nsw i64 %166, 2
  call void @llvm.memcpy.p0i8.p0i8.i64(i8* nonnull align 16 %7, i8* nonnull align 16 %9, i64 %168, i1 false)
  br label %274

169:                                              ; preds = %165
  %170 = zext i32 %162 to i64
  %171 = add nsw i64 %170, -1
  %172 = add nsw i64 %170, -2
  %173 = icmp eq i32 %162, 1
  %174 = and i64 %171, 3
  %175 = icmp ult i64 %172, 3
  %176 = and i64 %171, -4
  %177 = icmp eq i64 %174, 0
  br label %178

178:                                              ; preds = %169, %225
  %179 = phi i64 [ 0, %169 ], [ %227, %225 ]
  %180 = getelementptr inbounds [8 x [8 x i32]], [8 x [8 x i32]]* %8, i64 0, i64 0, i64 %179
  %181 = load i32, i32* %180, align 4, !tbaa !5
  %182 = getelementptr inbounds [8 x i32], [8 x i32]* %6, i64 0, i64 %179
  br i1 %173, label %225, label %183, !llvm.loop !21

183:                                              ; preds = %178
  br i1 %175, label %210, label %184

184:                                              ; preds = %183, %184
  %185 = phi i64 [ %207, %184 ], [ 1, %183 ]
  %186 = phi i32 [ %206, %184 ], [ %181, %183 ]
  %187 = phi i64 [ %208, %184 ], [ %176, %183 ]
  %188 = getelementptr inbounds [8 x [8 x i32]], [8 x [8 x i32]]* %8, i64 0, i64 %185, i64 %179
  %189 = load i32, i32* %188, align 4, !tbaa !5
  %190 = icmp sgt i32 %186, %189
  %191 = select i1 %190, i32 %189, i32 %186
  %192 = add nuw nsw i64 %185, 1
  %193 = getelementptr inbounds [8 x [8 x i32]], [8 x [8 x i32]]* %8, i64 0, i64 %192, i64 %179
  %194 = load i32, i32* %193, align 4, !tbaa !5
  %195 = icmp sgt i32 %191, %194
  %196 = select i1 %195, i32 %194, i32 %191
  %197 = add nuw nsw i64 %185, 2
  %198 = getelementptr inbounds [8 x [8 x i32]], [8 x [8 x i32]]* %8, i64 0, i64 %197, i64 %179
  %199 = load i32, i32* %198, align 4, !tbaa !5
  %200 = icmp sgt i32 %196, %199
  %201 = select i1 %200, i32 %199, i32 %196
  %202 = add nuw nsw i64 %185, 3
  %203 = getelementptr inbounds [8 x [8 x i32]], [8 x [8 x i32]]* %8, i64 0, i64 %202, i64 %179
  %204 = load i32, i32* %203, align 4, !tbaa !5
  %205 = icmp sgt i32 %201, %204
  %206 = select i1 %205, i32 %204, i32 %201
  %207 = add nuw nsw i64 %185, 4
  %208 = add i64 %187, -4
  %209 = icmp eq i64 %208, 0
  br i1 %209, label %210, label %184, !llvm.loop !21

210:                                              ; preds = %184, %183
  %211 = phi i32 [ undef, %183 ], [ %206, %184 ]
  %212 = phi i64 [ 1, %183 ], [ %207, %184 ]
  %213 = phi i32 [ %181, %183 ], [ %206, %184 ]
  br i1 %177, label %225, label %214

214:                                              ; preds = %210, %214
  %215 = phi i64 [ %222, %214 ], [ %212, %210 ]
  %216 = phi i32 [ %221, %214 ], [ %213, %210 ]
  %217 = phi i64 [ %223, %214 ], [ %174, %210 ]
  %218 = getelementptr inbounds [8 x [8 x i32]], [8 x [8 x i32]]* %8, i64 0, i64 %215, i64 %179
  %219 = load i32, i32* %218, align 4, !tbaa !5
  %220 = icmp sgt i32 %216, %219
  %221 = select i1 %220, i32 %219, i32 %216
  %222 = add nuw nsw i64 %215, 1
  %223 = add i64 %217, -1
  %224 = icmp eq i64 %223, 0
  br i1 %224, label %225, label %214, !llvm.loop !22

225:                                              ; preds = %210, %214, %178
  %226 = phi i32 [ %181, %178 ], [ %211, %210 ], [ %221, %214 ]
  store i32 %226, i32* %182, align 4, !tbaa !5
  %227 = add nuw nsw i64 %179, 1
  %228 = icmp eq i64 %227, %166
  br i1 %228, label %250, label %178, !llvm.loop !23

229:                                              ; preds = %229, %35
  %230 = phi i64 [ 0, %35 ], [ %247, %229 ]
  %231 = phi i64 [ %36, %35 ], [ %248, %229 ]
  %232 = getelementptr inbounds [8 x [8 x i32]], [8 x [8 x i32]]* %8, i64 0, i64 %230, i64 0
  %233 = load i32, i32* %232, align 16, !tbaa !5
  %234 = getelementptr inbounds [8 x i32], [8 x i32]* %5, i64 0, i64 %230
  store i32 %233, i32* %234, align 16, !tbaa !5
  %235 = or i64 %230, 1
  %236 = getelementptr inbounds [8 x [8 x i32]], [8 x [8 x i32]]* %8, i64 0, i64 %235, i64 0
  %237 = load i32, i32* %236, align 16, !tbaa !5
  %238 = getelementptr inbounds [8 x i32], [8 x i32]* %5, i64 0, i64 %235
  store i32 %237, i32* %238, align 4, !tbaa !5
  %239 = or i64 %230, 2
  %240 = getelementptr inbounds [8 x [8 x i32]], [8 x [8 x i32]]* %8, i64 0, i64 %239, i64 0
  %241 = load i32, i32* %240, align 16, !tbaa !5
  %242 = getelementptr inbounds [8 x i32], [8 x i32]* %5, i64 0, i64 %239
  store i32 %241, i32* %242, align 8, !tbaa !5
  %243 = or i64 %230, 3
  %244 = getelementptr inbounds [8 x [8 x i32]], [8 x [8 x i32]]* %8, i64 0, i64 %243, i64 0
  %245 = load i32, i32* %244, align 16, !tbaa !5
  %246 = getelementptr inbounds [8 x i32], [8 x i32]* %5, i64 0, i64 %243
  store i32 %245, i32* %246, align 4, !tbaa !5
  %247 = add nuw nsw i64 %230, 4
  %248 = add i64 %231, -4
  %249 = icmp eq i64 %248, 0
  br i1 %249, label %148, label %229, !llvm.loop !15

250:                                              ; preds = %225
  %251 = select i1 %161, i1 %164, i1 false
  br i1 %251, label %252, label %274

252:                                              ; preds = %250
  %253 = zext i32 %162 to i64
  %254 = zext i32 %163 to i64
  br label %255

255:                                              ; preds = %252, %267
  %256 = phi i64 [ 0, %252 ], [ %268, %267 ]
  %257 = getelementptr inbounds [8 x i32], [8 x i32]* %5, i64 0, i64 %256
  %258 = load i32, i32* %257, align 4, !tbaa !5
  br label %259

259:                                              ; preds = %255, %264
  %260 = phi i64 [ 0, %255 ], [ %265, %264 ]
  %261 = getelementptr inbounds [8 x i32], [8 x i32]* %6, i64 0, i64 %260
  %262 = load i32, i32* %261, align 4, !tbaa !5
  %263 = icmp eq i32 %258, %262
  br i1 %263, label %270, label %264

264:                                              ; preds = %259
  %265 = add nuw nsw i64 %260, 1
  %266 = icmp eq i64 %265, %254
  br i1 %266, label %267, label %259, !llvm.loop !24

267:                                              ; preds = %264
  %268 = add nuw nsw i64 %256, 1
  %269 = icmp eq i64 %268, %253
  br i1 %269, label %274, label %255, !llvm.loop !25

270:                                              ; preds = %259
  %271 = trunc i64 %256 to i32
  %272 = trunc i64 %260 to i32
  %273 = call i32 (i8*, ...) @printf(i8* nonnull dereferenceable(1) getelementptr inbounds ([6 x i8], [6 x i8]* @.str.2, i64 0, i64 0), i32 %271, i32 %272)
  br label %276

274:                                              ; preds = %267, %250, %160, %167
  %275 = call i32 (i8*, ...) @printf(i8* nonnull dereferenceable(1) getelementptr inbounds ([3 x i8], [3 x i8]* @.str.3, i64 0, i64 0))
  br label %276

276:                                              ; preds = %274, %270
  call void @llvm.lifetime.end.p0i8(i64 256, i8* nonnull %9) #5
  call void @llvm.lifetime.end.p0i8(i64 32, i8* nonnull %7) #5
  call void @llvm.lifetime.end.p0i8(i64 32, i8* nonnull %12) #5
  call void @llvm.lifetime.end.p0i8(i64 4, i8* nonnull %11) #5
  call void @llvm.lifetime.end.p0i8(i64 4, i8* nonnull %10) #5
  ret i32 0
}